; Function Attrs: nounwind uwtable
define void @Kit_DsdTruth(ptr noundef %0, ptr noundef writeonly captures(none) %1) local_unnamed_addr #0 {
  %3 = load i16, ptr %0, align 8, !tbaa !34
  %4 = zext i16 %3 to i32
  %5 = getelementptr i8, ptr %0, i64 4
  %.val8 = load i16, ptr %5, align 4, !tbaa !38
  %6 = zext i16 %.val8 to i32
  %7 = add nuw nsw i32 %6, %4
  %8 = tail call ptr @Kit_DsdManAlloc(i32 noundef %4, i32 noundef %7)
  %9 = load i16, ptr %0, align 8, !tbaa !34
  %.not22.i = icmp eq i16 %9, 0
  br i1 %.not22.i, label %._crit_edge.i, label %.lr.ph.i

.lr.ph.i:                                         ; preds = %2
  %10 = getelementptr inbounds nuw i8, ptr %8, i64 16
  %11 = load ptr, ptr %10, align 8, !tbaa !25
  %12 = getelementptr i8, ptr %11, i64 8
  %.val15.i = load ptr, ptr %12, align 8, !tbaa !19
  %13 = getelementptr inbounds nuw i8, ptr %8, i64 8
  %14 = load ptr, ptr %13, align 8, !tbaa !24
  %15 = getelementptr i8, ptr %14, i64 8
  %.val.i = load ptr, ptr %15, align 8, !tbaa !19
  %wide.trip.count.i = zext i16 %9 to i64
  %.pre = load i32, ptr %8, align 8, !tbaa !3
  %16 = icmp slt i32 %.pre, 6
  %17 = add nsw i32 %.pre, -5
  %18 = shl nuw i32 1, %17
  %spec.select.i.i = select i1 %16, i32 1, i32 %18
  %19 = icmp sgt i32 %spec.select.i.i, 0
  %20 = zext nneg i32 %spec.select.i.i to i64
  br label %21

21:                                               ; preds = %Kit_TruthCopy.exit.i, %.lr.ph.i
  %indvars.iv.i = phi i64 [ 0, %.lr.ph.i ], [ %indvars.iv.next.i, %Kit_TruthCopy.exit.i ]
  %22 = getelementptr inbounds nuw ptr, ptr %.val15.i, i64 %indvars.iv.i
  %23 = load ptr, ptr %22, align 8, !tbaa !13
  %24 = getelementptr inbounds nuw ptr, ptr %.val.i, i64 %indvars.iv.i
  %25 = load ptr, ptr %24, align 8, !tbaa !13
  br i1 %19, label %select.unfold.i.i, label %Kit_TruthCopy.exit.i

select.unfold.i.i:                                ; preds = %21, %select.unfold.i.i
  %indvars.iv.i.i = phi i64 [ %indvars.iv.next.i.i, %select.unfold.i.i ], [ %20, %21 ]
  %indvars.iv.next.i.i = add nsw i64 %indvars.iv.i.i, -1
  %26 = getelementptr inbounds nuw i32, ptr %25, i64 %indvars.iv.next.i.i
  %27 = load i32, ptr %26, align 4, !tbaa !20
  %28 = getelementptr inbounds nuw i32, ptr %23, i64 %indvars.iv.next.i.i
  store i32 %27, ptr %28, align 4, !tbaa !20
  %29 = icmp samesign ugt i64 %indvars.iv.i.i, 1
  br i1 %29, label %select.unfold.i.i, label %Kit_TruthCopy.exit.i, !llvm.loop !56

Kit_TruthCopy.exit.i:                             ; preds = %select.unfold.i.i, %21
  %indvars.iv.next.i = add nuw nsw i64 %indvars.iv.i, 1
  %exitcond.not.i = icmp eq i64 %indvars.iv.next.i, %wide.trip.count.i
  br i1 %exitcond.not.i, label %._crit_edge.i, label %21, !llvm.loop !57

._crit_edge.i:                                    ; preds = %Kit_TruthCopy.exit.i, %2
  %30 = getelementptr inbounds nuw i8, ptr %0, i64 6
  %31 = load i16, ptr %30, align 2, !tbaa !51
  %32 = lshr i16 %31, 1
  %33 = zext nneg i16 %32 to i32
  %34 = tail call ptr @Kit_DsdTruthComputeNode_rec(ptr noundef %8, ptr noundef nonnull %0, i32 noundef %33)
  %35 = load i16, ptr %30, align 2, !tbaa !51
  %36 = and i16 %35, 1
  %.not.i = icmp eq i16 %36, 0
  %.pre11 = load i16, ptr %0, align 8, !tbaa !34
  %.pre12 = zext i16 %.pre11 to i32
  br i1 %.not.i, label %._crit_edge.i.Kit_DsdTruthCompute.exit_crit_edge, label %37

._crit_edge.i.Kit_DsdTruthCompute.exit_crit_edge: ; preds = %._crit_edge.i
  %.pre13 = add nsw i32 %.pre12, -5
  %.pre15 = shl nuw i32 1, %.pre13
  br label %Kit_DsdTruthCompute.exit

37:                                               ; preds = %._crit_edge.i
  %38 = icmp ult i16 %.pre11, 6
  %39 = add nsw i32 %.pre12, -5
  %40 = shl nuw i32 1, %39
  %spec.select.i16.i = select i1 %38, i32 1, i32 %40
  %41 = icmp sgt i32 %spec.select.i16.i, 0
  br i1 %41, label %select.unfold.preheader.i17.i, label %Kit_DsdTruthCompute.exit

select.unfold.preheader.i17.i:                    ; preds = %37
  %42 = zext nneg i32 %spec.select.i16.i to i64
  br label %select.unfold.i18.i

select.unfold.i18.i:                              ; preds = %select.unfold.i18.i, %select.unfold.preheader.i17.i
  %indvars.iv.i19.i = phi i64 [ %42, %select.unfold.preheader.i17.i ], [ %indvars.iv.next.i20.i, %select.unfold.i18.i ]
  %indvars.iv.next.i20.i = add nsw i64 %indvars.iv.i19.i, -1
  %43 = getelementptr inbounds nuw i32, ptr %34, i64 %indvars.iv.next.i20.i
  %44 = load i32, ptr %43, align 4, !tbaa !20
  %45 = xor i32 %44, -1
  store i32 %45, ptr %43, align 4, !tbaa !20
  %46 = icmp samesign ugt i64 %indvars.iv.i19.i, 1
  br i1 %46, label %select.unfold.i18.i, label %Kit_DsdTruthCompute.exit, !llvm.loop !58

Kit_DsdTruthCompute.exit:                         ; preds = %select.unfold.i18.i, %._crit_edge.i.Kit_DsdTruthCompute.exit_crit_edge, %37
  %.pre-phi16 = phi i32 [ %.pre15, %._crit_edge.i.Kit_DsdTruthCompute.exit_crit_edge ], [ %40, %37 ], [ %40, %select.unfold.i18.i ]
  %47 = icmp ult i16 %.pre11, 6
  %spec.select.i = select i1 %47, i32 1, i32 %.pre-phi16
  %48 = icmp sgt i32 %spec.select.i, 0
  br i1 %48, label %select.unfold.preheader.i, label %Kit_TruthCopy.exit

select.unfold.preheader.i:                        ; preds = %Kit_DsdTruthCompute.exit
  %49 = zext nneg i32 %spec.select.i to i64
  br label %select.unfold.i

select.unfold.i:                                  ; preds = %select.unfold.i, %select.unfold.preheader.i
  %indvars.iv.i9 = phi i64 [ %49, %select.unfold.preheader.i ], [ %indvars.iv.next.i10, %select.unfold.i ]
  %indvars.iv.next.i10 = add nsw i64 %indvars.iv.i9, -1
  %50 = getelementptr inbounds nuw i32, ptr %34, i64 %indvars.iv.next.i10
  %51 = load i32, ptr %50, align 4, !tbaa !20
  %52 = getelementptr inbounds nuw i32, ptr %1, i64 %indvars.iv.next.i10
  store i32 %51, ptr %52, align 4, !tbaa !20
  %53 = icmp samesign ugt i64 %indvars.iv.i9, 1
  br i1 %53, label %select.unfold.i, label %Kit_TruthCopy.exit, !llvm.loop !56

Kit_TruthCopy.exit:                               ; preds = %select.unfold.i, %Kit_DsdTruthCompute.exit
  tail call void @Kit_DsdManFree(ptr noundef %8)
  ret void
}